target datalayout = "e-m:e-p270:32:32-p271:32:32-p272:64:64-i64:64-i128:128-f80:128-n8:16:32:64-S128"
target triple = "x86_64-pc-linux-gnu"

%"class.std::basic_istream" = type { ptr, i64, %"class.std::basic_ios" }
%"class.std::basic_ios" = type { %"class.std::ios_base", ptr, i8, i8, ptr, ptr, ptr, ptr }
%"class.std::ios_base" = type { ptr, i64, i64, i32, i32, i32, ptr, %"struct.std::ios_base::_Words", [8 x %"struct.std::ios_base::_Words"], i32, ptr, %"class.std::locale" }
%"struct.std::ios_base::_Words" = type { ptr, i64 }
%"class.std::locale" = type { ptr }
%"class.std::basic_ostream" = type { ptr, %"class.std::basic_ios" }
%class.V3LexerBase = type <{ %class.FlexLexer.base, i32, i32, [4 x i8], ptr, %"class.std::basic_istream", %"class.std::basic_ostream", i8, [3 x i8], i32, ptr, i32, i32, i32, [4 x i8], i64, i64, ptr, i32, [4 x i8], ptr, ptr, ptr, ptr, ptr, i32, i32, i32, i32, i32, i32, i32, [4 x i8] }>
%class.FlexLexer.base = type <{ ptr, ptr, i32, i32, i32 }>
%class.FlexLexer = type <{ ptr, ptr, i32, i32, i32, [4 x i8] }>
%struct.yy_buffer_state = type { ptr, ptr, ptr, i32, i32, i32, i32, i32, i32, i32, i32, i32 }

; Function Attrs: mustprogress uwtable
define dso_local noundef i32 @_ZN11V3LexerBase7yyinputEv(ptr noundef nonnull align 8 dereferenceable(732) %0) #5 align 2 {
  %2 = alloca i32, align 4
  %3 = alloca ptr, align 8
  %4 = alloca i32, align 4
  %5 = alloca i32, align 4
  store ptr %0, ptr %3, align 8
  %6 = load ptr, ptr %3, align 8
  %7 = getelementptr inbounds %class.V3LexerBase, ptr %6, i32 0, i32 7
  %8 = load i8, ptr %7, align 8
  %9 = getelementptr inbounds %class.V3LexerBase, ptr %6, i32 0, i32 10
  %10 = load ptr, ptr %9, align 8
  store i8 %8, ptr %10, align 1
  %11 = getelementptr inbounds %class.V3LexerBase, ptr %6, i32 0, i32 10
  %12 = load ptr, ptr %11, align 8
  %13 = load i8, ptr %12, align 1
  %14 = sext i8 %13 to i32
  %15 = icmp eq i32 %14, 0
  br i1 %15, label %16, label %80

16:                                               ; preds = %1
  %17 = getelementptr inbounds %class.V3LexerBase, ptr %6, i32 0, i32 10
  %18 = load ptr, ptr %17, align 8
  %19 = getelementptr inbounds %class.V3LexerBase, ptr %6, i32 0, i32 17
  %20 = load ptr, ptr %19, align 8
  %21 = getelementptr inbounds %class.V3LexerBase, ptr %6, i32 0, i32 15
  %22 = load i64, ptr %21, align 8
  %23 = getelementptr inbounds ptr, ptr %20, i64 %22
  %24 = load ptr, ptr %23, align 8
  %25 = getelementptr inbounds %struct.yy_buffer_state, ptr %24, i32 0, i32 1
  %26 = load ptr, ptr %25, align 8
  %27 = getelementptr inbounds %class.V3LexerBase, ptr %6, i32 0, i32 9
  %28 = load i32, ptr %27, align 4
  %29 = sext i32 %28 to i64
  %30 = getelementptr inbounds i8, ptr %26, i64 %29
  %31 = icmp ult ptr %18, %30
  br i1 %31, label %32, label %35

32:                                               ; preds = %16
  %33 = getelementptr inbounds %class.V3LexerBase, ptr %6, i32 0, i32 10
  %34 = load ptr, ptr %33, align 8
  store i8 0, ptr %34, align 1
  br label %79

35:                                               ; preds = %16
  %36 = getelementptr inbounds %class.V3LexerBase, ptr %6, i32 0, i32 10
  %37 = load ptr, ptr %36, align 8
  %38 = getelementptr inbounds %class.FlexLexer, ptr %6, i32 0, i32 1
  %39 = load ptr, ptr %38, align 8
  %40 = ptrtoint ptr %37 to i64
  %41 = ptrtoint ptr %39 to i64
  %42 = sub i64 %40, %41
  %43 = trunc i64 %42 to i32
  store i32 %43, ptr %5, align 4
  %44 = getelementptr inbounds %class.V3LexerBase, ptr %6, i32 0, i32 10
  %45 = load ptr, ptr %44, align 8
  %46 = getelementptr inbounds i8, ptr %45, i32 1
  store ptr %46, ptr %44, align 8
  %47 = call noundef i32 @_ZN11V3LexerBase18yy_get_next_bufferEv(ptr noundef nonnull align 8 dereferenceable(732) %6)
  switch i32 %47, label %78 [
    i32 2, label %48
    i32 1, label %53
    i32 0, label %71
  ]

48:                                               ; preds = %35
  %49 = getelementptr inbounds %class.V3LexerBase, ptr %6, i32 0, i32 5
  %50 = load ptr, ptr %6, align 8
  %51 = getelementptr inbounds ptr, ptr %50, i64 7
  %52 = load ptr, ptr %51, align 8
  call void %52(ptr noundef nonnull align 8 dereferenceable(732) %6, ptr noundef nonnull align 8 dereferenceable(16) %49)
  br label %53

53:                                               ; preds = %48, %35
  %54 = load ptr, ptr %6, align 8
  %55 = getelementptr inbounds ptr, ptr %54, i64 11
  %56 = load ptr, ptr %55, align 8
  %57 = call noundef i32 %56(ptr noundef nonnull align 8 dereferenceable(732) %6)
  %58 = icmp ne i32 %57, 0
  br i1 %58, label %59, label %60

59:                                               ; preds = %53
  store i32 0, ptr %2, align 4
  br label %93

60:                                               ; preds = %53
  %61 = getelementptr inbounds %class.V3LexerBase, ptr %6, i32 0, i32 13
  %62 = load i32, ptr %61, align 8
  %63 = icmp ne i32 %62, 0
  br i1 %63, label %69, label %64

64:                                               ; preds = %60
  %65 = getelementptr inbounds %class.V3LexerBase, ptr %6, i32 0, i32 5
  %66 = load ptr, ptr %6, align 8
  %67 = getelementptr inbounds ptr, ptr %66, i64 7
  %68 = load ptr, ptr %67, align 8
  call void %68(ptr noundef nonnull align 8 dereferenceable(732) %6, ptr noundef nonnull align 8 dereferenceable(16) %65)
  br label %69

69:                                               ; preds = %64, %60
  %70 = call noundef i32 @_ZN11V3LexerBase7yyinputEv(ptr noundef nonnull align 8 dereferenceable(732) %6)
  store i32 %70, ptr %2, align 4
  br label %93

71:                                               ; preds = %35
  %72 = getelementptr inbounds %class.FlexLexer, ptr %6, i32 0, i32 1
  %73 = load ptr, ptr %72, align 8
  %74 = load i32, ptr %5, align 4
  %75 = sext i32 %74 to i64
  %76 = getelementptr inbounds i8, ptr %73, i64 %75
  %77 = getelementptr inbounds %class.V3LexerBase, ptr %6, i32 0, i32 10
  store ptr %76, ptr %77, align 8
  br label %78

78:                                               ; preds = %71, %35
  br label %79

79:                                               ; preds = %78, %32
  br label %80

80:                                               ; preds = %79, %1
  %81 = getelementptr inbounds %class.V3LexerBase, ptr %6, i32 0, i32 10
  %82 = load ptr, ptr %81, align 8
  %83 = load i8, ptr %82, align 1
  %84 = zext i8 %83 to i32
  store i32 %84, ptr %4, align 4
  %85 = getelementptr inbounds %class.V3LexerBase, ptr %6, i32 0, i32 10
  %86 = load ptr, ptr %85, align 8
  store i8 0, ptr %86, align 1
  %87 = getelementptr inbounds %class.V3LexerBase, ptr %6, i32 0, i32 10
  %88 = load ptr, ptr %87, align 8
  %89 = getelementptr inbounds i8, ptr %88, i32 1
  store ptr %89, ptr %87, align 8
  %90 = load i8, ptr %89, align 1
  %91 = getelementptr inbounds %class.V3LexerBase, ptr %6, i32 0, i32 7
  store i8 %90, ptr %91, align 8
  %92 = load i32, ptr %4, align 4
  store i32 %92, ptr %2, align 4
  br label %93

93:                                               ; preds = %80, %69, %59
  %94 = load i32, ptr %2, align 4
  ret i32 %94
}