; Function Attrs: mustprogress uwtable
define dso_local noundef i32 @_ZN11V3LexerBase7yyinputEv(ptr noundef nonnull align 8 dereferenceable(732) %0) local_unnamed_addr #4 align 2 {
  %2 = getelementptr inbounds i8, ptr %0, i64 600
  %3 = getelementptr inbounds i8, ptr %0, i64 608
  %4 = load i8, ptr %2, align 8
  %5 = load ptr, ptr %3, align 8
  store i8 %4, ptr %5, align 1
  %6 = load ptr, ptr %3, align 8
  %7 = load i8, ptr %6, align 1
  %8 = icmp eq i8 %7, 0
  br i1 %8, label %.lr.ph, label %.loopexit

.lr.ph:                                           ; preds = %1
  %9 = getelementptr inbounds i8, ptr %0, i64 648
  %10 = getelementptr inbounds i8, ptr %0, i64 632
  %11 = getelementptr inbounds i8, ptr %0, i64 604
  %12 = getelementptr inbounds i8, ptr %0, i64 8
  %13 = getelementptr inbounds i8, ptr %0, i64 48
  %14 = getelementptr inbounds i8, ptr %0, i64 624
  br label %15

15:                                               ; preds = %.lr.ph, %tailrecurse
  %16 = phi ptr [ %6, %.lr.ph ], [ %49, %tailrecurse ]
  %17 = load ptr, ptr %9, align 8
  %18 = load i64, ptr %10, align 8
  %19 = getelementptr inbounds ptr, ptr %17, i64 %18
  %20 = load ptr, ptr %19, align 8
  %21 = getelementptr inbounds i8, ptr %20, i64 8
  %22 = load ptr, ptr %21, align 8
  %23 = load i32, ptr %11, align 4
  %24 = sext i32 %23 to i64
  %25 = getelementptr inbounds i8, ptr %22, i64 %24
  %26 = icmp ult ptr %16, %25
  br i1 %26, label %27, label %28

27:                                               ; preds = %15
  store i8 0, ptr %16, align 1
  %.pre = load ptr, ptr %3, align 8
  br label %.loopexit

28:                                               ; preds = %15
  %29 = load ptr, ptr %12, align 8
  %30 = getelementptr inbounds i8, ptr %16, i64 1
  store ptr %30, ptr %3, align 8
  %31 = tail call noundef i32 @_ZN11V3LexerBase18yy_get_next_bufferEv(ptr noundef nonnull align 8 dereferenceable(732) %0), !range !10
  switch i32 %31, label %default.unreachable34 [
    i32 2, label %32
    i32 1, label %36
    i32 0, label %52
  ]

32:                                               ; preds = %28
  %33 = load ptr, ptr %0, align 8
  %34 = getelementptr inbounds i8, ptr %33, i64 56
  %35 = load ptr, ptr %34, align 8
  tail call void %35(ptr noundef nonnull align 8 dereferenceable(732) %0, ptr noundef nonnull align 8 dereferenceable(16) %13)
  br label %36

36:                                               ; preds = %32, %28
  %37 = load ptr, ptr %0, align 8
  %38 = getelementptr inbounds i8, ptr %37, i64 88
  %39 = load ptr, ptr %38, align 8
  %40 = tail call noundef i32 %39(ptr noundef nonnull align 8 dereferenceable(732) %0)
  %.not = icmp eq i32 %40, 0
  br i1 %.not, label %41, label %.loopexit5

41:                                               ; preds = %36
  %42 = load i32, ptr %14, align 8
  %.not4 = icmp eq i32 %42, 0
  br i1 %.not4, label %43, label %tailrecurse

43:                                               ; preds = %41
  %44 = load ptr, ptr %0, align 8
  %45 = getelementptr inbounds i8, ptr %44, i64 56
  %46 = load ptr, ptr %45, align 8
  tail call void %46(ptr noundef nonnull align 8 dereferenceable(732) %0, ptr noundef nonnull align 8 dereferenceable(16) %13)
  br label %tailrecurse

tailrecurse:                                      ; preds = %43, %41
  %47 = load i8, ptr %2, align 8
  %48 = load ptr, ptr %3, align 8
  store i8 %47, ptr %48, align 1
  %49 = load ptr, ptr %3, align 8
  %50 = load i8, ptr %49, align 1
  %51 = icmp eq i8 %50, 0
  br i1 %51, label %15, label %.loopexit

52:                                               ; preds = %28
  %53 = ptrtoint ptr %16 to i64
  %54 = ptrtoint ptr %29 to i64
  %55 = sub i64 %53, %54
  %56 = load ptr, ptr %12, align 8
  %sext = shl i64 %55, 32
  %57 = ashr exact i64 %sext, 32
  %58 = getelementptr inbounds i8, ptr %56, i64 %57
  store ptr %58, ptr %3, align 8
  br label %.loopexit

default.unreachable34:                            ; preds = %28
  unreachable

.loopexit:                                        ; preds = %tailrecurse, %1, %27, %52
  %59 = phi ptr [ %.pre, %27 ], [ %58, %52 ], [ %6, %1 ], [ %49, %tailrecurse ]
  %60 = load i8, ptr %59, align 1
  %61 = zext i8 %60 to i32
  store i8 0, ptr %59, align 1
  %62 = load ptr, ptr %3, align 8
  %63 = getelementptr inbounds i8, ptr %62, i64 1
  store ptr %63, ptr %3, align 8
  %64 = load i8, ptr %63, align 1
  store i8 %64, ptr %2, align 8
  br label %.loopexit5

.loopexit5:                                       ; preds = %36, %.loopexit
  %.0 = phi i32 [ %61, %.loopexit ], [ 0, %36 ]
  ret i32 %.0
}